; Function Attrs: nounwind uwtable
define void @Cgt_ManDetectFanout_rec(ptr noundef readonly captures(none) %0, ptr noundef %1, i32 noundef %2, ptr noundef captures(none) %3) local_unnamed_addr #0 {
  %5 = getelementptr i8, ptr %1, i64 24
  %.val29 = load i64, ptr %5, align 8
  %6 = and i64 %.val29, 7
  %.not = icmp eq i64 %6, 3
  br i1 %.not, label %.critedge, label %7

7:                                                ; preds = %4
  %8 = lshr i64 %.val29, 32
  %9 = trunc nuw i64 %8 to i32
  %10 = and i32 %9, 16777215
  %11 = icmp sgt i32 %10, %2
  br i1 %11, label %.critedge, label %12

12:                                               ; preds = %7
  %13 = getelementptr i8, ptr %0, i64 312
  %.val = load i32, ptr %13, align 8, !tbaa !3
  %14 = getelementptr i8, ptr %1, i64 32
  %.val26 = load i32, ptr %14, align 8, !tbaa !21
  %.not33 = icmp eq i32 %.val26, %.val
  br i1 %.not33, label %.critedge, label %15

15:                                               ; preds = %12
  store i32 %.val, ptr %14, align 8, !tbaa !21
  %16 = getelementptr inbounds nuw i8, ptr %3, i64 4
  %17 = load i32, ptr %16, align 4, !tbaa !28
  %18 = load i32, ptr %3, align 8, !tbaa !30
  %19 = icmp eq i32 %17, %18
  br i1 %19, label %20, label %.Vec_PtrGrow.exit11_crit_edge.i

.Vec_PtrGrow.exit11_crit_edge.i:                  ; preds = %15
  %.phi.trans.insert.i = getelementptr inbounds nuw i8, ptr %3, i64 8
  %.pre.i = load ptr, ptr %.phi.trans.insert.i, align 8, !tbaa !31
  br label %Vec_PtrPush.exit

20:                                               ; preds = %15
  %21 = icmp slt i32 %17, 16
  br i1 %21, label %22, label %30

22:                                               ; preds = %20
  %23 = getelementptr inbounds nuw i8, ptr %3, i64 8
  %24 = load ptr, ptr %23, align 8, !tbaa !31
  %.not9.i.i = icmp eq ptr %24, null
  br i1 %.not9.i.i, label %27, label %25

25:                                               ; preds = %22
  %26 = tail call dereferenceable_or_null(128) ptr @realloc(ptr noundef nonnull %24, i64 noundef 128) #11
  br label %Vec_PtrGrow.exit.i

27:                                               ; preds = %22
  %28 = tail call noalias dereferenceable_or_null(128) ptr @malloc(i64 noundef 128) #12
  br label %Vec_PtrGrow.exit.i

Vec_PtrGrow.exit.i:                               ; preds = %27, %25
  %29 = phi ptr [ %26, %25 ], [ %28, %27 ]
  store ptr %29, ptr %23, align 8, !tbaa !31
  store i32 16, ptr %3, align 8, !tbaa !30
  br label %Vec_PtrPush.exit

30:                                               ; preds = %20
  %31 = shl nuw nsw i32 %17, 1
  %32 = getelementptr inbounds nuw i8, ptr %3, i64 8
  %33 = load ptr, ptr %32, align 8, !tbaa !31
  %.not9.i10.i = icmp eq ptr %33, null
  %34 = zext nneg i32 %31 to i64
  %35 = shl nuw nsw i64 %34, 3
  br i1 %.not9.i10.i, label %38, label %36

36:                                               ; preds = %30
  %37 = tail call ptr @realloc(ptr noundef nonnull %33, i64 noundef %35) #11
  br label %40

38:                                               ; preds = %30
  %39 = tail call noalias ptr @malloc(i64 noundef %35) #12
  br label %40

40:                                               ; preds = %38, %36
  %41 = phi ptr [ %37, %36 ], [ %39, %38 ]
  store ptr %41, ptr %32, align 8, !tbaa !31
  store i32 %31, ptr %3, align 8, !tbaa !30
  br label %Vec_PtrPush.exit

Vec_PtrPush.exit:                                 ; preds = %.Vec_PtrGrow.exit11_crit_edge.i, %Vec_PtrGrow.exit.i, %40
  %42 = phi ptr [ %.pre.i, %.Vec_PtrGrow.exit11_crit_edge.i ], [ %41, %40 ], [ %29, %Vec_PtrGrow.exit.i ]
  %43 = load i32, ptr %16, align 4, !tbaa !28
  %44 = add nsw i32 %43, 1
  store i32 %44, ptr %16, align 4, !tbaa !28
  %45 = sext i32 %43 to i64
  %46 = getelementptr inbounds ptr, ptr %42, i64 %45
  store ptr %1, ptr %46, align 8, !tbaa !32
  %47 = load i64, ptr %5, align 8
  %48 = and i64 %47, 4294967232
  %.not36 = icmp eq i64 %48, 0
  br i1 %.not36, label %.critedge, label %.lr.ph

.lr.ph:                                           ; preds = %Vec_PtrPush.exit
  %49 = getelementptr i8, ptr %0, i64 176
  %50 = getelementptr inbounds nuw i8, ptr %1, i64 36
  %51 = getelementptr i8, ptr %0, i64 32
  br label %52

52:                                               ; preds = %.lr.ph, %Aig_ManObj.exit
  %.035 = phi i32 [ -1, %.lr.ph ], [ %65, %Aig_ManObj.exit ]
  %.02234 = phi i32 [ 0, %.lr.ph ], [ %73, %Aig_ManObj.exit ]
  %.not25 = icmp eq i32 %.02234, 0
  br i1 %.not25, label %59, label %53

53:                                               ; preds = %52
  %54 = ashr i32 %.035, 1
  %55 = mul nsw i32 %54, 5
  %56 = and i32 %.035, 1
  %57 = add nuw nsw i32 %56, 3
  %58 = add i32 %57, %55
  br label %62

59:                                               ; preds = %52
  %60 = load i32, ptr %50, align 4, !tbaa !24
  %61 = mul nsw i32 %60, 5
  br label %62

62:                                               ; preds = %59, %53
  %.sink37 = phi i32 [ %61, %59 ], [ %58, %53 ]
  %.val31.sink = load ptr, ptr %49, align 8, !tbaa !33
  %63 = sext i32 %.sink37 to i64
  %64 = getelementptr inbounds i32, ptr %.val31.sink, i64 %63
  %65 = load i32, ptr %64, align 4, !tbaa !27
  %.val32 = load ptr, ptr %51, align 8, !tbaa !34
  %.not.i = icmp eq ptr %.val32, null
  br i1 %.not.i, label %Aig_ManObj.exit, label %66

66:                                               ; preds = %62
  %67 = ashr i32 %65, 1
  %68 = getelementptr i8, ptr %.val32, i64 8
  %.val.i = load ptr, ptr %68, align 8, !tbaa !31
  %69 = sext i32 %67 to i64
  %70 = getelementptr inbounds ptr, ptr %.val.i, i64 %69
  %71 = load ptr, ptr %70, align 8, !tbaa !32
  br label %Aig_ManObj.exit

Aig_ManObj.exit:                                  ; preds = %62, %66
  %72 = phi ptr [ %71, %66 ], [ null, %62 ]
  tail call void @Cgt_ManDetectFanout_rec(ptr noundef nonnull %0, ptr noundef %72, i32 noundef %2, ptr noundef nonnull %3)
  %73 = add nuw nsw i32 %.02234, 1
  %74 = load i64, ptr %5, align 8
  %75 = trunc i64 %74 to i32
  %76 = lshr i32 %75, 6
  %77 = icmp samesign ult i32 %73, %76
  br i1 %77, label %52, label %.critedge, !llvm.loop !35

.critedge:                                        ; preds = %Aig_ManObj.exit, %Vec_PtrPush.exit, %12, %4, %7
  ret void
}